; Function Attrs: mustprogress uwtable
define noundef zeroext i1 @_ZN3url11ReadUTFCharEPKcPiiPj(ptr noundef %0, ptr noundef %1, i32 noundef %2, ptr noundef %3) local_unnamed_addr #0 {
  %5 = tail call noundef zeroext i1 @_ZN4base20ReadUnicodeCharacterEPKciPiPj(ptr noundef %0, i32 noundef %2, ptr noundef %1, ptr noundef %3)
  br i1 %5, label %6, label %_ZN4base16IsValidCharacterEj.exit.thread6

6:                                                ; preds = %4
  %7 = load i32, ptr %3, align 4, !tbaa !3
  %8 = icmp ult i32 %7, 55296
  %9 = add i32 %7, -57344
  %or.cond.i = icmp ult i32 %9, 7632
  %or.cond9.i = or i1 %8, %or.cond.i
  br i1 %or.cond9.i, label %_ZN4base16IsValidCharacterEj.exit.thread, label %10

10:                                               ; preds = %6
  %11 = add i32 %7, -65008
  %or.cond3.i = icmp ult i32 %11, 1049104
  %12 = and i32 %7, 65534
  %13 = icmp ne i32 %12, 65534
  %or.cond = and i1 %or.cond3.i, %13
  br i1 %or.cond, label %_ZN4base16IsValidCharacterEj.exit.thread, label %_ZN4base16IsValidCharacterEj.exit.thread6

_ZN4base16IsValidCharacterEj.exit.thread6:        ; preds = %10, %4
  store i32 65533, ptr %3, align 4, !tbaa !3
  br label %_ZN4base16IsValidCharacterEj.exit.thread

_ZN4base16IsValidCharacterEj.exit.thread:         ; preds = %10, %6, %_ZN4base16IsValidCharacterEj.exit.thread6
  %.0 = phi i1 [ false, %_ZN4base16IsValidCharacterEj.exit.thread6 ], [ true, %6 ], [ true, %10 ]
  ret i1 %.0
}